; Function Attrs: inlinehint nounwind uwtable
define internal range(i32 -1, 1) i32 @H5O__attr_shared_link(ptr noundef %0, ptr noundef %1, ptr noundef %2) #0 {
  %4 = load i8, ptr @H5O_init_g, align 1, !tbaa !3, !range !7, !noundef !8
  %5 = trunc nuw i8 %4 to i1
  %6 = load i8, ptr @H5_libterm_g, align 1, !range !7
  %7 = trunc nuw i8 %6 to i1
  %8 = xor i1 %7, true
  %9 = select i1 %5, i1 true, i1 %8
  br i1 %9, label %10, label %H5O__attr_link.exit, !prof !9

10:                                               ; preds = %3
  %11 = load i32, ptr %2, align 8, !tbaa !40
  %.not = icmp eq i32 %11, 0
  br i1 %.not, label %19, label %12

12:                                               ; preds = %10
  %13 = tail call i32 @H5O__shared_link(ptr noundef %0, ptr noundef %1, ptr noundef nonnull @H5O_MSG_ATTR, ptr noundef nonnull %2) #12
  %14 = icmp slt i32 %13, 0
  br i1 %14, label %15, label %H5O__attr_link.exit

15:                                               ; preds = %12
  %16 = load i64, ptr @H5E_OHDR_g, align 8, !tbaa !10
  %17 = load i64, ptr @H5E_CANTINC_g, align 8, !tbaa !10
  %18 = tail call i32 (ptr, ptr, i32, i64, i64, ptr, ...) @H5E_printf_stack(ptr noundef nonnull @.str.4, ptr noundef nonnull @__func__.H5O__attr_shared_link, i32 noundef 262, i64 noundef %16, i64 noundef %17, ptr noundef nonnull @.str.30) #12
  br label %H5O__attr_link.exit

19:                                               ; preds = %10
  %20 = load ptr, ptr getelementptr inbounds nuw (i8, ptr @H5O_MSG_DTYPE, i64 88), align 8, !tbaa !43
  %21 = getelementptr inbounds nuw i8, ptr %2, i64 96
  %22 = load ptr, ptr %21, align 8, !tbaa !14
  %23 = getelementptr inbounds nuw i8, ptr %22, i64 24
  %24 = load ptr, ptr %23, align 8, !tbaa !35
  %25 = tail call i32 %20(ptr noundef %0, ptr noundef %1, ptr noundef %24) #12
  %26 = icmp slt i32 %25, 0
  br i1 %26, label %27, label %31

27:                                               ; preds = %19
  %28 = load i64, ptr @H5E_ATTR_g, align 8, !tbaa !10
  %29 = load i64, ptr @H5E_LINKCOUNT_g, align 8, !tbaa !10
  %30 = tail call i32 (ptr, ptr, i32, i64, i64, ptr, ...) @H5E_printf_stack(ptr noundef nonnull @.str.1, ptr noundef nonnull @__func__.H5O__attr_link, i32 noundef 614, i64 noundef %28, i64 noundef %29, ptr noundef nonnull @.str.2) #12
  br label %42

31:                                               ; preds = %19
  %32 = load ptr, ptr getelementptr inbounds nuw (i8, ptr @H5O_MSG_SDSPACE, i64 88), align 8, !tbaa !43
  %33 = load ptr, ptr %21, align 8, !tbaa !14
  %34 = getelementptr inbounds nuw i8, ptr %33, i64 40
  %35 = load ptr, ptr %34, align 8, !tbaa !36
  %36 = tail call i32 %32(ptr noundef %0, ptr noundef %1, ptr noundef %35) #12
  %37 = icmp slt i32 %36, 0
  br i1 %37, label %38, label %H5O__attr_link.exit

38:                                               ; preds = %31
  %39 = load i64, ptr @H5E_ATTR_g, align 8, !tbaa !10
  %40 = load i64, ptr @H5E_LINKCOUNT_g, align 8, !tbaa !10
  %41 = tail call i32 (ptr, ptr, i32, i64, i64, ptr, ...) @H5E_printf_stack(ptr noundef nonnull @.str.1, ptr noundef nonnull @__func__.H5O__attr_link, i32 noundef 616, i64 noundef %39, i64 noundef %40, ptr noundef nonnull @.str.3) #12
  br label %42

42:                                               ; preds = %27, %38
  %43 = load i64, ptr @H5E_OHDR_g, align 8, !tbaa !10
  %44 = load i64, ptr @H5E_CANTINC_g, align 8, !tbaa !10
  %45 = tail call i32 (ptr, ptr, i32, i64, i64, ptr, ...) @H5E_printf_stack(ptr noundef nonnull @.str.4, ptr noundef nonnull @__func__.H5O__attr_shared_link, i32 noundef 268, i64 noundef %43, i64 noundef %44, ptr noundef nonnull @.str.31) #12
  br label %H5O__attr_link.exit

H5O__attr_link.exit:                              ; preds = %31, %15, %42, %12, %3
  %.0 = phi i32 [ -1, %15 ], [ 0, %12 ], [ -1, %42 ], [ 0, %3 ], [ 0, %31 ]
  ret i32 %.0
}